; Function Attrs: null_pointer_is_valid sspstrong uwtable
define internal i32 @dissect_p1_MTABindError(i1 noundef zeroext %0, ptr noundef %1, i32 noundef %2, ptr noundef %3, ptr noundef %4, i32 noundef %5) unnamed_addr #0 {
  %7 = alloca i32, align 4
  call void @llvm.lifetime.start.p0(i64 4, ptr nonnull %7) #5
  store i32 -1, ptr %7, align 4
  %8 = call i32 @dissect_ber_constrained_integer(i1 noundef zeroext %0, ptr noundef %3, ptr noundef %4, ptr noundef %1, i32 noundef %2, i32 noundef 0, i32 noundef 256, i32 noundef %5, ptr noundef nonnull %7)
  %9 = load i32, ptr %7, align 4
  %.not = icmp eq i32 %9, -1
  br i1 %.not, label %16, label %10

10:                                               ; preds = %6
  %11 = getelementptr inbounds nuw i8, ptr %3, i64 16
  %12 = load ptr, ptr %11, align 8
  %13 = getelementptr inbounds nuw i8, ptr %12, i64 8
  %14 = load ptr, ptr %13, align 8
  %15 = call ptr @val_to_str(i32 noundef %9, ptr noundef nonnull @p1_MTABindError_vals, ptr noundef nonnull @.str.1933)
  call void (ptr, i32, ptr, ...) @col_append_fstr(ptr noundef %14, i32 noundef 25, ptr noundef nonnull @.str.6, ptr noundef %15)
  br label %16

16:                                               ; preds = %10, %6
  call void @llvm.lifetime.end.p0(i64 4, ptr nonnull %7) #5
  ret i32 %8
}